target datalayout = "e-m:e-p270:32:32-p271:32:32-p272:64:64-i64:64-i128:128-f80:128-n8:16:32:64-S128"
target triple = "x86_64-pc-linux-gnu"

%struct.psa_key_attributes_s = type { i16, i16, i32, %struct.psa_key_policy_s, i32 }
%struct.psa_key_policy_s = type { i32, i32, i32 }
%struct.psa_crypto_driver_pake_inputs_s = type { ptr, i64, ptr, i64, ptr, i64, %struct.psa_key_attributes_s, %struct.psa_pake_cipher_suite_s }
%struct.psa_pake_cipher_suite_s = type { i32, i8, i8, i16, i32 }

; Function Attrs: nounwind uwtable
define hidden i32 @psa_crypto_driver_pake_get_cipher_suite(ptr noundef %0, ptr noundef %1) #0 {
  %3 = alloca i32, align 4
  %4 = alloca ptr, align 8
  %5 = alloca ptr, align 8
  store ptr %0, ptr %4, align 8, !tbaa !132
  store ptr %1, ptr %5, align 8, !tbaa !142
  %6 = load ptr, ptr %4, align 8, !tbaa !132
  %7 = getelementptr inbounds nuw %struct.psa_crypto_driver_pake_inputs_s, ptr %6, i32 0, i32 7
  %8 = getelementptr inbounds nuw %struct.psa_pake_cipher_suite_s, ptr %7, i32 0, i32 0
  %9 = load i32, ptr %8, align 8, !tbaa !144
  %10 = icmp eq i32 %9, 0
  br i1 %10, label %11, label %12

11:                                               ; preds = %2
  store i32 -137, ptr %3, align 4
  br label %16

12:                                               ; preds = %2
  %13 = load ptr, ptr %5, align 8, !tbaa !142
  %14 = load ptr, ptr %4, align 8, !tbaa !132
  %15 = getelementptr inbounds nuw %struct.psa_crypto_driver_pake_inputs_s, ptr %14, i32 0, i32 7
  call void @llvm.memcpy.p0.p0.i64(ptr align 4 %13, ptr align 8 %15, i64 12, i1 false), !tbaa.struct !145
  store i32 0, ptr %3, align 4
  br label %16

16:                                               ; preds = %12, %11
  %17 = load i32, ptr %3, align 4
  ret i32 %17
}